target datalayout = "e-m:e-p270:32:32-p271:32:32-p272:64:64-i64:64-i128:128-f80:128-n8:16:32:64-S128"
target triple = "x86_64-pc-linux-gnu"

@.str = private unnamed_addr constant [28 x i8] c"../openssl/test/ecdsatest.c\00", align 1
@.str.15 = private unnamed_addr constant [2 x i8] c"0\00", align 1
@set_sm2_id.sm2_id = internal constant [10 x i8] c"\01\02\03\04letter", align 1
@.str.40 = private unnamed_addr constant [37 x i8] c"pctx = EVP_MD_CTX_get_pkey_ctx(mctx)\00", align 1
@.str.41 = private unnamed_addr constant [51 x i8] c"EVP_PKEY_CTX_set1_id(pctx, sm2_id, sizeof(sm2_id))\00", align 1

; Function Attrs: nounwind uwtable
define internal i32 @set_sm2_id(ptr noundef %0, ptr noundef %1) #0 {
  %3 = alloca i32, align 4
  %4 = alloca ptr, align 8
  %5 = alloca ptr, align 8
  %6 = alloca ptr, align 8
  %7 = alloca i32, align 4
  store ptr %0, ptr %4, align 8, !tbaa !20
  store ptr %1, ptr %5, align 8, !tbaa !33
  call void @llvm.lifetime.start.p0(i64 8, ptr %6) #4
  %8 = load ptr, ptr %4, align 8, !tbaa !20
  %9 = call ptr @EVP_MD_CTX_get_pkey_ctx(ptr noundef %8)
  store ptr %9, ptr %6, align 8, !tbaa !38
  %10 = call i32 @test_ptr(ptr noundef @.str, i32 noundef 182, ptr noundef @.str.40, ptr noundef %9)
  %11 = icmp ne i32 %10, 0
  br i1 %11, label %12, label %17

12:                                               ; preds = %2
  %13 = load ptr, ptr %6, align 8, !tbaa !38
  %14 = call i32 @EVP_PKEY_CTX_set1_id(ptr noundef %13, ptr noundef @set_sm2_id.sm2_id, i32 noundef 10)
  %15 = call i32 @test_int_gt(ptr noundef @.str, i32 noundef 183, ptr noundef @.str.41, ptr noundef @.str.15, i32 noundef %14, i32 noundef 0)
  %16 = icmp ne i32 %15, 0
  br i1 %16, label %18, label %17

17:                                               ; preds = %12, %2
  store i32 0, ptr %3, align 4
  store i32 1, ptr %7, align 4
  br label %19

18:                                               ; preds = %12
  store i32 1, ptr %3, align 4
  store i32 1, ptr %7, align 4
  br label %19

19:                                               ; preds = %18, %17
  call void @llvm.lifetime.end.p0(i64 8, ptr %6) #4
  %20 = load i32, ptr %3, align 4
  ret i32 %20
}