; Function Attrs: nounwind uwtable
define internal fastcc range(i32 0, 2) i32 @set_sm2_id(ptr noundef %0) unnamed_addr #0 {
  %2 = tail call ptr @EVP_MD_CTX_get_pkey_ctx(ptr noundef %0) #5
  %3 = tail call i32 @test_ptr(ptr noundef nonnull @.str, i32 noundef 182, ptr noundef nonnull @.str.40, ptr noundef %2) #5
  %.not = icmp eq i32 %3, 0
  br i1 %.not, label %7, label %4

4:                                                ; preds = %1
  %5 = tail call i32 @EVP_PKEY_CTX_set1_id(ptr noundef %2, ptr noundef nonnull @set_sm2_id.sm2_id, i32 noundef 10) #5
  %6 = tail call i32 @test_int_gt(ptr noundef nonnull @.str, i32 noundef 183, ptr noundef nonnull @.str.41, ptr noundef nonnull @.str.15, i32 noundef %5, i32 noundef 0) #5
  %.not2 = icmp ne i32 %6, 0
  %spec.select = zext i1 %.not2 to i32
  br label %7

7:                                                ; preds = %4, %1
  %.0 = phi i32 [ 0, %1 ], [ %spec.select, %4 ]
  ret i32 %.0
}